target datalayout = "e-m:e-p270:32:32-p271:32:32-p272:64:64-i64:64-i128:128-f80:128-n8:16:32:64-S128"
target triple = "x86_64-pc-linux-gnu"

%struct.wg_qqword = type { [32 x i8] }
%struct.wg_skey = type { %struct.wg_qqword, %struct.wg_qqword, %struct.wg_qqword }
%struct._proto_node = type { ptr, ptr, ptr, ptr, ptr, ptr, ptr }
%struct.field_info = type { ptr, i32, i32, i32, i32, i32, i32, ptr, ptr, ptr, i32, i32 }

@hf_wg_receiver_pubkey = internal global i32 0, align 4
@hf_wg_receiver_pubkey_known_privkey = internal global i32 0, align 4
@ett_key_info = internal global i32 0, align 4

; Function Attrs: inlinehint nounwind null_pointer_is_valid sspstrong uwtable
define internal zeroext i1 @has_private_key(ptr noundef %0) #8 {
  %2 = alloca ptr, align 8
  store ptr %0, ptr %2, align 8
  %3 = load ptr, ptr %2, align 8
  %4 = getelementptr inbounds nuw %struct.wg_qqword, ptr %3, i32 0, i32 0
  %5 = getelementptr [32 x i8], ptr %4, i64 0, i64 31
  %6 = load i8, ptr %5, align 1
  %7 = zext i8 %6 to i32
  %8 = and i32 %7, 64
  %9 = icmp ne i32 %8, 0
  %10 = xor i1 %9, true
  %11 = xor i1 %10, true
  ret i1 %11
}

; Function Attrs: inlinehint nounwind null_pointer_is_valid sspstrong uwtable
define internal void @proto_item_set_generated(ptr noundef %0) #8 {
  %2 = alloca ptr, align 8
  store ptr %0, ptr %2, align 8
  %3 = load ptr, ptr %2, align 8
  %4 = icmp ne ptr %3, null
  br i1 %4, label %5, label %24

5:                                                ; preds = %1
  br label %6

6:                                                ; preds = %5
  %7 = load ptr, ptr %2, align 8
  %8 = getelementptr inbounds nuw %struct._proto_node, ptr %7, i32 0, i32 5
  %9 = load ptr, ptr %8, align 8
  %10 = icmp ne ptr %9, null
  br i1 %10, label %11, label %22

11:                                               ; preds = %6
  %12 = load ptr, ptr %2, align 8
  %13 = getelementptr inbounds nuw %struct._proto_node, ptr %12, i32 0, i32 5
  %14 = load ptr, ptr %13, align 8
  %15 = getelementptr inbounds nuw %struct.field_info, ptr %14, i32 0, i32 6
  %16 = load i32, ptr %15, align 4
  %17 = or i32 %16, 2
  %18 = load ptr, ptr %2, align 8
  %19 = getelementptr inbounds nuw %struct._proto_node, ptr %18, i32 0, i32 5
  %20 = load ptr, ptr %19, align 8
  %21 = getelementptr inbounds nuw %struct.field_info, ptr %20, i32 0, i32 6
  store i32 %17, ptr %21, align 4
  br label %22

22:                                               ; preds = %11, %6
  br label %23

23:                                               ; preds = %22
  br label %24

24:                                               ; preds = %23, %1
  ret void
}

; Function Attrs: null_pointer_is_valid sspstrong uwtable
define internal ptr @pubkey_to_string(ptr noundef %0) #0 {
  %2 = alloca ptr, align 8
  %3 = alloca ptr, align 8
  %4 = alloca ptr, align 8
  store ptr %0, ptr %2, align 8
  call void @llvm.lifetime.start.p0(i64 8, ptr %3) #19
  %5 = load ptr, ptr %2, align 8
  %6 = getelementptr inbounds nuw %struct.wg_qqword, ptr %5, i32 0, i32 0
  %7 = getelementptr inbounds [32 x i8], ptr %6, i64 0, i64 0
  %8 = call noalias ptr @g_base64_encode(ptr noundef %7, i64 noundef 32)
  store ptr %8, ptr %3, align 8
  call void @llvm.lifetime.start.p0(i64 8, ptr %4) #19
  %9 = call ptr @wmem_packet_scope()
  %10 = load ptr, ptr %3, align 8
  %11 = call noalias ptr @wmem_strdup(ptr noundef %9, ptr noundef %10)
  store ptr %11, ptr %4, align 8
  %12 = load ptr, ptr %3, align 8
  call void @g_free(ptr noundef %12)
  %13 = load ptr, ptr %4, align 8
  call void @llvm.lifetime.end.p0(i64 8, ptr %4) #19
  call void @llvm.lifetime.end.p0(i64 8, ptr %3) #19
  ret ptr %13
}

; Function Attrs: null_pointer_is_valid sspstrong uwtable
define internal void @wg_dissect_mac1_pubkey(ptr noundef %0, ptr noundef %1, ptr noundef %2) #0 {
  %4 = alloca ptr, align 8
  %5 = alloca ptr, align 8
  %6 = alloca ptr, align 8
  %7 = alloca ptr, align 8
  %8 = alloca i32, align 4
  %9 = alloca ptr, align 8
  store ptr %0, ptr %4, align 8
  store ptr %1, ptr %5, align 8
  store ptr %2, ptr %6, align 8
  call void @llvm.lifetime.start.p0(i64 8, ptr %7) #19
  %10 = load ptr, ptr %6, align 8
  %11 = icmp ne ptr %10, null
  br i1 %11, label %13, label %12

12:                                               ; preds = %3
  store i32 1, ptr %8, align 4
  br label %37

13:                                               ; preds = %3
  %14 = load ptr, ptr %4, align 8
  %15 = load i32, ptr @hf_wg_receiver_pubkey, align 4
  %16 = load ptr, ptr %5, align 8
  %17 = load ptr, ptr %6, align 8
  %18 = getelementptr inbounds nuw %struct.wg_skey, ptr %17, i32 0, i32 0
  %19 = call ptr @pubkey_to_string(ptr noundef %18)
  %20 = call ptr @proto_tree_add_string(ptr noundef %14, i32 noundef %15, ptr noundef %16, i32 noundef 0, i32 noundef 0, ptr noundef %19)
  store ptr %20, ptr %7, align 8
  %21 = load ptr, ptr %7, align 8
  call void @proto_item_set_generated(ptr noundef %21)
  call void @llvm.lifetime.start.p0(i64 8, ptr %9) #19
  %22 = load ptr, ptr %7, align 8
  %23 = load i32, ptr @ett_key_info, align 4
  %24 = call ptr @proto_item_add_subtree(ptr noundef %22, i32 noundef %23)
  store ptr %24, ptr %9, align 8
  %25 = load ptr, ptr %9, align 8
  %26 = load i32, ptr @hf_wg_receiver_pubkey_known_privkey, align 4
  %27 = load ptr, ptr %5, align 8
  %28 = load ptr, ptr %6, align 8
  %29 = getelementptr inbounds nuw %struct.wg_skey, ptr %28, i32 0, i32 2
  %30 = call zeroext i1 @has_private_key(ptr noundef %29)
  %31 = xor i1 %30, true
  %32 = xor i1 %31, true
  %33 = zext i1 %32 to i32
  %34 = sext i32 %33 to i64
  %35 = call ptr @proto_tree_add_boolean(ptr noundef %25, i32 noundef %26, ptr noundef %27, i32 noundef 0, i32 noundef 0, i64 noundef %34)
  store ptr %35, ptr %7, align 8
  %36 = load ptr, ptr %7, align 8
  call void @proto_item_set_generated(ptr noundef %36)
  call void @llvm.lifetime.end.p0(i64 8, ptr %9) #19
  store i32 0, ptr %8, align 4
  br label %37

37:                                               ; preds = %13, %12
  call void @llvm.lifetime.end.p0(i64 8, ptr %7) #19
  %38 = load i32, ptr %8, align 4
  switch i32 %38, label %40 [
    i32 0, label %39
    i32 1, label %39
  ]

39:                                               ; preds = %37, %37
  ret void

40:                                               ; preds = %37
  unreachable
}