; Function Attrs: null_pointer_is_valid sspstrong uwtable
define internal fastcc void @wg_dissect_mac1_pubkey(ptr noundef %0, ptr noundef %1, ptr noundef %2) unnamed_addr #0 {
  %.not = icmp eq ptr %2, null
  br i1 %.not, label %proto_item_set_generated.exit12, label %4

4:                                                ; preds = %3
  %5 = load i32, ptr @hf_wg_receiver_pubkey, align 4
  %6 = tail call noalias ptr @g_base64_encode(ptr noundef nonnull %2, i64 noundef 32)
  %7 = tail call ptr @wmem_packet_scope()
  %8 = tail call noalias ptr @wmem_strdup(ptr noundef %7, ptr noundef %6)
  tail call void @g_free(ptr noundef %6)
  %9 = tail call ptr @proto_tree_add_string(ptr noundef %0, i32 noundef %5, ptr noundef %1, i32 noundef 0, i32 noundef 0, ptr noundef %8)
  %.not.i = icmp eq ptr %9, null
  br i1 %.not.i, label %proto_item_set_generated.exit, label %10

10:                                               ; preds = %4
  %11 = getelementptr inbounds nuw i8, ptr %9, i64 40
  %12 = load ptr, ptr %11, align 8
  %.not5.i = icmp eq ptr %12, null
  br i1 %.not5.i, label %proto_item_set_generated.exit, label %13

13:                                               ; preds = %10
  %14 = getelementptr inbounds nuw i8, ptr %12, i64 28
  %15 = load i32, ptr %14, align 4
  %16 = or i32 %15, 2
  store i32 %16, ptr %14, align 4
  br label %proto_item_set_generated.exit

proto_item_set_generated.exit:                    ; preds = %4, %10, %13
  %17 = load i32, ptr @ett_key_info, align 4
  %18 = tail call ptr @proto_item_add_subtree(ptr noundef %9, i32 noundef %17)
  %19 = load i32, ptr @hf_wg_receiver_pubkey_known_privkey, align 4
  %20 = getelementptr i8, ptr %2, i64 95
  %.val = load i8, ptr %20, align 1
  %21 = lshr i8 %.val, 6
  %.lobit = and i8 %21, 1
  %22 = zext nneg i8 %.lobit to i64
  %23 = tail call ptr @proto_tree_add_boolean(ptr noundef %18, i32 noundef %19, ptr noundef %1, i32 noundef 0, i32 noundef 0, i64 noundef %22)
  %.not.i10 = icmp eq ptr %23, null
  br i1 %.not.i10, label %proto_item_set_generated.exit12, label %24

24:                                               ; preds = %proto_item_set_generated.exit
  %25 = getelementptr inbounds nuw i8, ptr %23, i64 40
  %26 = load ptr, ptr %25, align 8
  %.not5.i11 = icmp eq ptr %26, null
  br i1 %.not5.i11, label %proto_item_set_generated.exit12, label %27

27:                                               ; preds = %24
  %28 = getelementptr inbounds nuw i8, ptr %26, i64 28
  %29 = load i32, ptr %28, align 4
  %30 = or i32 %29, 2
  store i32 %30, ptr %28, align 4
  br label %proto_item_set_generated.exit12

proto_item_set_generated.exit12:                  ; preds = %27, %24, %proto_item_set_generated.exit, %3
  ret void
}